; Function Attrs: nounwind uwtable
define internal range(i32 -1366, 1) i32 @setup_nspace(ptr noundef readonly captures(none) %0, ptr noundef %1) #0 {
  %3 = load i32, ptr getelementptr inbounds nuw (i8, ptr @pmix_pmdl_base_framework, i64 76), align 4, !tbaa !3
  %or.cond = icmp ult i32 %3, 64
  br i1 %or.cond, label %4, label %14

4:                                                ; preds = %2
  %5 = zext nneg i32 %3 to i64
  %6 = getelementptr inbounds nuw [0 x %struct.pmix_output_desc_t], ptr @pmix_output_info, i64 0, i64 %5, i32 2
  %7 = load i32, ptr %6, align 4, !tbaa !18
  %8 = icmp sgt i32 %7, 1
  br i1 %8, label %9, label %14

9:                                                ; preds = %4
  %10 = getelementptr inbounds nuw i8, ptr %0, i64 144
  %11 = load ptr, ptr %10, align 8, !tbaa !43
  %12 = getelementptr inbounds nuw i8, ptr %1, i64 528
  %13 = load ptr, ptr %12, align 8, !tbaa !57
  tail call void (i32, ptr, ...) @pmix_output(i32 noundef %3, ptr noundef nonnull @.str.12, ptr noundef %11, ptr noundef %13) #13
  br label %14

14:                                               ; preds = %9, %4, %2
  %15 = tail call fastcc zeroext i1 @checkus(ptr noundef %1, i64 noundef 1)
  br i1 %15, label %.preheader, label %51

.preheader:                                       ; preds = %14
  %.017 = load ptr, ptr getelementptr inbounds nuw (i8, ptr @mynspaces, i64 240), align 8, !tbaa !33
  %.not18 = icmp eq ptr %.017, getelementptr inbounds nuw (i8, ptr @mynspaces, i64 120)
  br i1 %.not18, label %.critedge, label %.lr.ph

.lr.ph:                                           ; preds = %.preheader
  %16 = getelementptr inbounds nuw i8, ptr %0, i64 144
  br label %17

17:                                               ; preds = %.lr.ph, %23
  %.019 = phi ptr [ %.017, %.lr.ph ], [ %.0, %23 ]
  %18 = getelementptr inbounds nuw i8, ptr %.019, i64 144
  %19 = load ptr, ptr %16, align 8, !tbaa !43
  %20 = tail call zeroext i1 @PMIx_Check_nspace(ptr noundef nonnull %18, ptr noundef %19) #13
  br i1 %20, label %21, label %23

21:                                               ; preds = %17
  %22 = icmp eq ptr %.019, null
  br i1 %22, label %.critedge, label %51

23:                                               ; preds = %17
  %24 = getelementptr inbounds nuw i8, ptr %.019, i64 120
  %.0 = load ptr, ptr %24, align 8, !tbaa !33
  %.not = icmp eq ptr %.0, getelementptr inbounds nuw (i8, ptr @mynspaces, i64 120)
  br i1 %.not, label %.critedge, label %17, !llvm.loop !58

.critedge:                                        ; preds = %23, %.preheader, %21
  %25 = load i64, ptr getelementptr inbounds nuw (i8, ptr @pmdl_nspace_t_class, i64 56), align 8, !tbaa !50
  %26 = tail call noalias noundef ptr @malloc(i64 noundef %25) #18
  %27 = load i32, ptr @pmix_class_init_epoch, align 4, !tbaa !21
  %28 = load i32, ptr getelementptr inbounds nuw (i8, ptr @pmdl_nspace_t_class, i64 32), align 8, !tbaa !22
  %.not.i = icmp eq i32 %27, %28
  br i1 %.not.i, label %30, label %29

29:                                               ; preds = %.critedge
  tail call void @pmix_class_initialize(ptr noundef nonnull @pmdl_nspace_t_class) #13
  br label %30

30:                                               ; preds = %29, %.critedge
  %.not22.i = icmp eq ptr %26, null
  br i1 %.not22.i, label %pmix_obj_new_tma.exit, label %31

31:                                               ; preds = %30
  %32 = tail call i32 @pthread_mutex_init(ptr noundef nonnull %26, ptr noundef null) #13
  %33 = getelementptr inbounds nuw i8, ptr %26, i64 40
  store ptr @pmdl_nspace_t_class, ptr %33, align 8, !tbaa !24
  %34 = getelementptr inbounds nuw i8, ptr %26, i64 48
  store i32 1, ptr %34, align 8, !tbaa !25
  %35 = getelementptr inbounds nuw i8, ptr %26, i64 56
  %36 = getelementptr inbounds nuw i8, ptr %26, i64 96
  tail call void @llvm.memset.p0.i64(ptr noundef nonnull align 8 dereferenceable(32) %35, i8 0, i64 32, i1 false)
  tail call void @llvm.memset.p0.i64(ptr noundef nonnull align 8 dereferenceable(24) %36, i8 0, i64 24, i1 false)
  %37 = load ptr, ptr getelementptr inbounds nuw (i8, ptr @pmdl_nspace_t_class, i64 40), align 8, !tbaa !26
  %38 = load ptr, ptr %37, align 8, !tbaa !27
  %.not6.i.i = icmp eq ptr %38, null
  br i1 %.not6.i.i, label %pmix_obj_new_tma.exit, label %.lr.ph.i.i

.lr.ph.i.i:                                       ; preds = %31, %.lr.ph.i.i
  %39 = phi ptr [ %41, %.lr.ph.i.i ], [ %38, %31 ]
  %.07.i.i = phi ptr [ %40, %.lr.ph.i.i ], [ %37, %31 ]
  tail call void %39(ptr noundef nonnull %26) #13
  %40 = getelementptr inbounds nuw i8, ptr %.07.i.i, i64 8
  %41 = load ptr, ptr %40, align 8, !tbaa !27
  %.not.i.i = icmp eq ptr %41, null
  br i1 %.not.i.i, label %pmix_obj_new_tma.exit, label %.lr.ph.i.i, !llvm.loop !28

pmix_obj_new_tma.exit:                            ; preds = %.lr.ph.i.i, %30, %31
  %42 = getelementptr inbounds nuw i8, ptr %26, i64 144
  %43 = getelementptr inbounds nuw i8, ptr %0, i64 144
  %44 = load ptr, ptr %43, align 8, !tbaa !43
  tail call void @PMIx_Load_nspace(ptr noundef nonnull %42, ptr noundef %44) #13
  %45 = load ptr, ptr getelementptr inbounds nuw (i8, ptr @mynspaces, i64 248), align 8, !tbaa !32
  %46 = getelementptr inbounds nuw i8, ptr %26, i64 128
  store ptr %45, ptr %46, align 8, !tbaa !32
  %47 = getelementptr inbounds nuw i8, ptr %45, i64 120
  store volatile ptr %26, ptr %47, align 8, !tbaa !33
  %48 = getelementptr inbounds nuw i8, ptr %26, i64 120
  store ptr getelementptr inbounds nuw (i8, ptr @mynspaces, i64 120), ptr %48, align 8, !tbaa !33
  store ptr %26, ptr getelementptr inbounds nuw (i8, ptr @mynspaces, i64 248), align 8, !tbaa !32
  %49 = load volatile i64, ptr getelementptr inbounds nuw (i8, ptr @mynspaces, i64 264), align 8, !tbaa !30
  %50 = add i64 %49, 1
  store volatile i64 %50, ptr getelementptr inbounds nuw (i8, ptr @mynspaces, i64 264), align 8, !tbaa !30
  br label %51

51:                                               ; preds = %21, %pmix_obj_new_tma.exit, %14
  %.014 = phi i32 [ -1366, %14 ], [ 0, %pmix_obj_new_tma.exit ], [ 0, %21 ]
  ret i32 %.014
}